; Function Attrs: mustprogress uwtable
define void @_ZN32pxrInternal_v0_24__pxrReserved__32UsdImagingDataSourceAttributeNewERKNS_12UsdAttributeERKNS_32UsdImagingDataSourceStageGlobalsERKNS_7SdfPathERKNS_19HdDataSourceLocatorE(ptr dead_on_unwind noalias writable sret(%"class.std::shared_ptr") align 8 %0, ptr noundef nonnull align 8 dereferenceable(32) %1, ptr noundef nonnull align 8 dereferenceable(8) %2, ptr noundef nonnull align 4 dereferenceable(8) %3, ptr noundef nonnull align 8 dereferenceable(56) %4) local_unnamed_addr #0 personality ptr @__gxx_personality_v0 {
  %6 = alloca %"class.pxrInternal_v0_24__pxrReserved__::UsdAttributeQuery", align 8
  call void @_ZN32pxrInternal_v0_24__pxrReserved__17UsdAttributeQueryC1ERKNS_12UsdAttributeE(ptr noundef nonnull align 8 dereferenceable(120) %6, ptr noundef nonnull align 8 dereferenceable(32) %1)
  invoke void @_ZN32pxrInternal_v0_24__pxrReserved__32UsdImagingDataSourceAttributeNewERKNS_17UsdAttributeQueryERKNS_32UsdImagingDataSourceStageGlobalsERKNS_7SdfPathERKNS_19HdDataSourceLocatorE(ptr dead_on_unwind writable sret(%"class.std::shared_ptr") align 8 %0, ptr noundef nonnull align 8 dereferenceable(120) %6, ptr noundef nonnull align 8 dereferenceable(8) %2, ptr noundef nonnull align 4 dereferenceable(8) %3, ptr noundef nonnull align 8 dereferenceable(56) %4)
          to label %7 unwind label %8

7:                                                ; preds = %5
  call void @_ZN32pxrInternal_v0_24__pxrReserved__17UsdAttributeQueryD2Ev(ptr noundef nonnull align 8 dereferenceable(120) %6) #19
  ret void

8:                                                ; preds = %5
  %9 = landingpad { ptr, i32 }
          cleanup
  call void @_ZN32pxrInternal_v0_24__pxrReserved__17UsdAttributeQueryD2Ev(ptr noundef nonnull align 8 dereferenceable(120) %6) #19
  resume { ptr, i32 } %9
}